target datalayout = "e-m:e-p270:32:32-p271:32:32-p272:64:64-i64:64-i128:128-f80:128-n8:16:32:64-S128"
target triple = "x86_64-pc-linux-gnu"

%struct.SDL_AudioDriverImpl = type { ptr, ptr, ptr, ptr, ptr, ptr, ptr, ptr, ptr, ptr, ptr, ptr, ptr, ptr, i8, i8, i8, i8 }

; Function Attrs: nounwind uwtable
define internal zeroext i1 @DISKAUDIO_Init(ptr noundef %0) #0 {
  %2 = alloca ptr, align 8
  store ptr %0, ptr %2, align 8
  %3 = load ptr, ptr %2, align 8
  %4 = getelementptr inbounds nuw %struct.SDL_AudioDriverImpl, ptr %3, i32 0, i32 1
  store ptr @DISKAUDIO_OpenDevice, ptr %4, align 8
  %5 = load ptr, ptr %2, align 8
  %6 = getelementptr inbounds nuw %struct.SDL_AudioDriverImpl, ptr %5, i32 0, i32 4
  store ptr @DISKAUDIO_WaitDevice, ptr %6, align 8
  %7 = load ptr, ptr %2, align 8
  %8 = getelementptr inbounds nuw %struct.SDL_AudioDriverImpl, ptr %7, i32 0, i32 7
  store ptr @DISKAUDIO_WaitDevice, ptr %8, align 8
  %9 = load ptr, ptr %2, align 8
  %10 = getelementptr inbounds nuw %struct.SDL_AudioDriverImpl, ptr %9, i32 0, i32 5
  store ptr @DISKAUDIO_PlayDevice, ptr %10, align 8
  %11 = load ptr, ptr %2, align 8
  %12 = getelementptr inbounds nuw %struct.SDL_AudioDriverImpl, ptr %11, i32 0, i32 6
  store ptr @DISKAUDIO_GetDeviceBuf, ptr %12, align 8
  %13 = load ptr, ptr %2, align 8
  %14 = getelementptr inbounds nuw %struct.SDL_AudioDriverImpl, ptr %13, i32 0, i32 8
  store ptr @DISKAUDIO_RecordDevice, ptr %14, align 8
  %15 = load ptr, ptr %2, align 8
  %16 = getelementptr inbounds nuw %struct.SDL_AudioDriverImpl, ptr %15, i32 0, i32 9
  store ptr @DISKAUDIO_FlushRecording, ptr %16, align 8
  %17 = load ptr, ptr %2, align 8
  %18 = getelementptr inbounds nuw %struct.SDL_AudioDriverImpl, ptr %17, i32 0, i32 10
  store ptr @DISKAUDIO_CloseDevice, ptr %18, align 8
  %19 = load ptr, ptr %2, align 8
  %20 = getelementptr inbounds nuw %struct.SDL_AudioDriverImpl, ptr %19, i32 0, i32 0
  store ptr @DISKAUDIO_DetectDevices, ptr %20, align 8
  %21 = load ptr, ptr %2, align 8
  %22 = getelementptr inbounds nuw %struct.SDL_AudioDriverImpl, ptr %21, i32 0, i32 15
  store i8 1, ptr %22, align 1
  ret i1 true
}