; Function Attrs: mustprogress nofree norecurse nosync nounwind willreturn memory(argmem: write) uwtable
define internal noundef zeroext i1 @DISKAUDIO_Init(ptr noundef writeonly captures(none) initializes((0, 16), (32, 88), (113, 114)) %0) #0 {
  %2 = getelementptr inbounds nuw i8, ptr %0, i64 8
  store ptr @DISKAUDIO_OpenDevice, ptr %2, align 8
  %3 = getelementptr inbounds nuw i8, ptr %0, i64 32
  store ptr @DISKAUDIO_WaitDevice, ptr %3, align 8
  %4 = getelementptr inbounds nuw i8, ptr %0, i64 56
  store ptr @DISKAUDIO_WaitDevice, ptr %4, align 8
  %5 = getelementptr inbounds nuw i8, ptr %0, i64 40
  store ptr @DISKAUDIO_PlayDevice, ptr %5, align 8
  %6 = getelementptr inbounds nuw i8, ptr %0, i64 48
  store ptr @DISKAUDIO_GetDeviceBuf, ptr %6, align 8
  %7 = getelementptr inbounds nuw i8, ptr %0, i64 64
  store ptr @DISKAUDIO_RecordDevice, ptr %7, align 8
  %8 = getelementptr inbounds nuw i8, ptr %0, i64 72
  store ptr @DISKAUDIO_FlushRecording, ptr %8, align 8
  %9 = getelementptr inbounds nuw i8, ptr %0, i64 80
  store ptr @DISKAUDIO_CloseDevice, ptr %9, align 8
  store ptr @DISKAUDIO_DetectDevices, ptr %0, align 8
  %10 = getelementptr inbounds nuw i8, ptr %0, i64 113
  store i8 1, ptr %10, align 1
  ret i1 true
}